target datalayout = "e-m:e-p270:32:32-p271:32:32-p272:64:64-i64:64-i128:128-f80:128-n8:16:32:64-S128"
target triple = "x86_64-pc-linux-gnu"

%struct.__jmp_buf_tag = type { [8 x i64], i32, %struct.__sigset_t }
%struct.__sigset_t = type { [16 x i64] }
%struct.FunctionCallInfoBaseData = type { ptr, ptr, ptr, i32, i8, i16, [0 x %struct.NullableDatum] }
%struct.NullableDatum = type { i64, i8 }
%struct.PLpgSQL_function = type { ptr, i32, i32, %struct.ItemPointerData, i32, i32, ptr, ptr, i32, i32, i8, i8, i8, i8, i8, i8, i32, [100 x i32], i32, i32, i32, i32, i32, i8, i32, i32, i32, ptr, i64, ptr, i32, i8, i8, ptr, i64 }
%struct.ItemPointerData = type { %struct.BlockIdData, i16 }
%struct.BlockIdData = type { i16, i16 }
%union.anon = type { %struct.FunctionCallInfoBaseData }
%struct.FmgrInfo = type { ptr, i32, i16, i8, i8, i8, ptr, ptr, ptr }
%struct.InlineCodeBlock = type { i32, ptr, i32, i8, i8 }

@.str = private unnamed_addr constant [11 x i8] c"plpgsql-18\00", align 1
@PG_exception_stack = external global ptr, align 8
@error_context_stack = external global ptr, align 8
@.str.15 = private unnamed_addr constant [22 x i8] c"SPI_finish failed: %s\00", align 1
@.str.16 = private unnamed_addr constant [13 x i8] c"pl_handler.c\00", align 1
@CurrentMemoryContext = external global ptr, align 8
@.str.17 = private unnamed_addr constant [37 x i8] c"PL/pgSQL DO block simple expressions\00", align 1
@__func__.plpgsql_inline_handler = private unnamed_addr constant [23 x i8] c"plpgsql_inline_handler\00", align 1

; Function Attrs: inlinehint nounwind uwtable
define internal ptr @DatumGetPointer(i64 noundef %0) #4 {
  %2 = alloca i64, align 8
  store i64 %0, ptr %2, align 8
  %3 = load i64, ptr %2, align 8
  %4 = inttoptr i64 %3 to ptr
  ret ptr %4
}

; Function Attrs: nounwind uwtable
define i64 @plpgsql_inline_handler(ptr noundef %0) #0 {
  %2 = alloca ptr, align 8
  %3 = alloca %union.anon, align 8
  %4 = alloca ptr, align 8
  %5 = alloca ptr, align 8
  %6 = alloca ptr, align 8
  %7 = alloca %struct.FmgrInfo, align 8
  %8 = alloca ptr, align 8
  %9 = alloca ptr, align 8
  %10 = alloca i64, align 8
  %11 = alloca i32, align 4
  %12 = alloca ptr, align 8
  %13 = alloca i32, align 4
  %14 = alloca i64, align 8
  %15 = alloca ptr, align 8
  %16 = alloca ptr, align 8
  %17 = alloca ptr, align 8
  %18 = alloca i32, align 4
  %19 = alloca i64, align 8
  %20 = alloca ptr, align 8
  %21 = alloca ptr, align 8
  %22 = alloca ptr, align 8
  %23 = alloca ptr, align 8
  %24 = alloca [1 x %struct.__jmp_buf_tag], align 16
  %25 = alloca i8, align 1
  store ptr %0, ptr %2, align 8
  call void @llvm.lifetime.start.p0(i64 32, ptr %3) #9
  call void @llvm.lifetime.start.p0(i64 8, ptr %4) #9
  store ptr %3, ptr %4, align 8
  call void @llvm.lifetime.start.p0(i64 8, ptr %5) #9
  %26 = load ptr, ptr %2, align 8
  %27 = getelementptr inbounds nuw %struct.FunctionCallInfoBaseData, ptr %26, i32 0, i32 6
  %28 = getelementptr inbounds [0 x %struct.NullableDatum], ptr %27, i64 0, i64 0
  %29 = getelementptr inbounds nuw %struct.NullableDatum, ptr %28, i32 0, i32 0
  %30 = load i64, ptr %29, align 8
  %31 = call ptr @DatumGetPointer(i64 noundef %30)
  store ptr %31, ptr %5, align 8
  call void @llvm.lifetime.start.p0(i64 8, ptr %6) #9
  call void @llvm.lifetime.start.p0(i64 48, ptr %7) #9
  call void @llvm.lifetime.start.p0(i64 8, ptr %8) #9
  call void @llvm.lifetime.start.p0(i64 8, ptr %9) #9
  call void @llvm.lifetime.start.p0(i64 8, ptr %10) #9
  call void @llvm.lifetime.start.p0(i64 4, ptr %11) #9
  %32 = load ptr, ptr %5, align 8
  %33 = getelementptr inbounds nuw %struct.InlineCodeBlock, ptr %32, i32 0, i32 4
  %34 = load i8, ptr %33, align 1, !range !3, !noundef !4
  %35 = trunc i8 %34 to i1
  %36 = select i1 %35, i32 0, i32 1
  %37 = call i32 @SPI_connect_ext(i32 noundef %36)
  %38 = load ptr, ptr %5, align 8
  %39 = getelementptr inbounds nuw %struct.InlineCodeBlock, ptr %38, i32 0, i32 1
  %40 = load ptr, ptr %39, align 8
  %41 = call ptr @plpgsql_compile_inline(ptr noundef %40)
  store ptr %41, ptr %6, align 8
  %42 = load ptr, ptr %6, align 8
  %43 = getelementptr inbounds nuw %struct.PLpgSQL_function, ptr %42, i32 0, i32 34
  %44 = load i64, ptr %43, align 8
  %45 = add i64 %44, 1
  store i64 %45, ptr %43, align 8
  br label %46

46:                                               ; preds = %1
  call void @llvm.lifetime.start.p0(i64 8, ptr %12) #9
  %47 = load ptr, ptr %4, align 8
  store ptr %47, ptr %12, align 8
  call void @llvm.lifetime.start.p0(i64 4, ptr %13) #9
  store i32 0, ptr %13, align 4
  call void @llvm.lifetime.start.p0(i64 8, ptr %14) #9
  store i64 32, ptr %14, align 8
  %48 = load ptr, ptr %12, align 8
  %49 = ptrtoint ptr %48 to i64
  %50 = and i64 %49, 7
  %51 = icmp eq i64 %50, 0
  br i1 %51, label %52, label %75

52:                                               ; preds = %46
  %53 = load i64, ptr %14, align 8
  %54 = and i64 %53, 7
  %55 = icmp eq i64 %54, 0
  br i1 %55, label %56, label %75

56:                                               ; preds = %52
  %57 = load i32, ptr %13, align 4
  %58 = icmp eq i32 %57, 0
  br i1 %58, label %59, label %75

59:                                               ; preds = %56
  %60 = load i64, ptr %14, align 8
  %61 = icmp ule i64 %60, 1024
  br i1 %61, label %62, label %75

62:                                               ; preds = %59
  call void @llvm.lifetime.start.p0(i64 8, ptr %15) #9
  %63 = load ptr, ptr %12, align 8
  store ptr %63, ptr %15, align 8
  call void @llvm.lifetime.start.p0(i64 8, ptr %16) #9
  %64 = load ptr, ptr %15, align 8
  %65 = load i64, ptr %14, align 8
  %66 = getelementptr inbounds nuw i8, ptr %64, i64 %65
  store ptr %66, ptr %16, align 8
  br label %67

67:                                               ; preds = %71, %62
  %68 = load ptr, ptr %15, align 8
  %69 = load ptr, ptr %16, align 8
  %70 = icmp ult ptr %68, %69
  br i1 %70, label %71, label %74

71:                                               ; preds = %67
  %72 = load ptr, ptr %15, align 8
  %73 = getelementptr inbounds nuw i64, ptr %72, i32 1
  store ptr %73, ptr %15, align 8
  store i64 0, ptr %72, align 8
  br label %67, !llvm.loop !7

74:                                               ; preds = %67
  call void @llvm.lifetime.end.p0(i64 8, ptr %16) #9
  call void @llvm.lifetime.end.p0(i64 8, ptr %15) #9
  br label %80

75:                                               ; preds = %59, %56, %52, %46
  %76 = load ptr, ptr %12, align 8
  %77 = load i32, ptr %13, align 4
  %78 = trunc i32 %77 to i8
  %79 = load i64, ptr %14, align 8
  call void @llvm.memset.p0.i64(ptr align 1 %76, i8 %78, i64 %79, i1 false)
  br label %80

80:                                               ; preds = %75, %74
  call void @llvm.lifetime.end.p0(i64 8, ptr %14) #9
  call void @llvm.lifetime.end.p0(i64 4, ptr %13) #9
  call void @llvm.lifetime.end.p0(i64 8, ptr %12) #9
  br label %81

81:                                               ; preds = %80
  br label %82

82:                                               ; preds = %81
  br label %83

83:                                               ; preds = %82
  call void @llvm.lifetime.start.p0(i64 8, ptr %17) #9
  store ptr %7, ptr %17, align 8
  call void @llvm.lifetime.start.p0(i64 4, ptr %18) #9
  store i32 0, ptr %18, align 4
  call void @llvm.lifetime.start.p0(i64 8, ptr %19) #9
  store i64 48, ptr %19, align 8
  %84 = load ptr, ptr %17, align 8
  %85 = ptrtoint ptr %84 to i64
  %86 = and i64 %85, 7
  %87 = icmp eq i64 %86, 0
  br i1 %87, label %88, label %111

88:                                               ; preds = %83
  %89 = load i64, ptr %19, align 8
  %90 = and i64 %89, 7
  %91 = icmp eq i64 %90, 0
  br i1 %91, label %92, label %111

92:                                               ; preds = %88
  %93 = load i32, ptr %18, align 4
  %94 = icmp eq i32 %93, 0
  br i1 %94, label %95, label %111

95:                                               ; preds = %92
  %96 = load i64, ptr %19, align 8
  %97 = icmp ule i64 %96, 1024
  br i1 %97, label %98, label %111

98:                                               ; preds = %95
  call void @llvm.lifetime.start.p0(i64 8, ptr %20) #9
  %99 = load ptr, ptr %17, align 8
  store ptr %99, ptr %20, align 8
  call void @llvm.lifetime.start.p0(i64 8, ptr %21) #9
  %100 = load ptr, ptr %20, align 8
  %101 = load i64, ptr %19, align 8
  %102 = getelementptr inbounds nuw i8, ptr %100, i64 %101
  store ptr %102, ptr %21, align 8
  br label %103

103:                                              ; preds = %107, %98
  %104 = load ptr, ptr %20, align 8
  %105 = load ptr, ptr %21, align 8
  %106 = icmp ult ptr %104, %105
  br i1 %106, label %107, label %110

107:                                              ; preds = %103
  %108 = load ptr, ptr %20, align 8
  %109 = getelementptr inbounds nuw i64, ptr %108, i32 1
  store ptr %109, ptr %20, align 8
  store i64 0, ptr %108, align 8
  br label %103, !llvm.loop !8

110:                                              ; preds = %103
  call void @llvm.lifetime.end.p0(i64 8, ptr %21) #9
  call void @llvm.lifetime.end.p0(i64 8, ptr %20) #9
  br label %116

111:                                              ; preds = %95, %92, %88, %83
  %112 = load ptr, ptr %17, align 8
  %113 = load i32, ptr %18, align 4
  %114 = trunc i32 %113 to i8
  %115 = load i64, ptr %19, align 8
  call void @llvm.memset.p0.i64(ptr align 1 %112, i8 %114, i64 %115, i1 false)
  br label %116

116:                                              ; preds = %111, %110
  call void @llvm.lifetime.end.p0(i64 8, ptr %19) #9
  call void @llvm.lifetime.end.p0(i64 4, ptr %18) #9
  call void @llvm.lifetime.end.p0(i64 8, ptr %17) #9
  br label %117

117:                                              ; preds = %116
  br label %118

118:                                              ; preds = %117
  %119 = load ptr, ptr %4, align 8
  %120 = getelementptr inbounds nuw %struct.FunctionCallInfoBaseData, ptr %119, i32 0, i32 0
  store ptr %7, ptr %120, align 8
  %121 = getelementptr inbounds nuw %struct.FmgrInfo, ptr %7, i32 0, i32 1
  store i32 0, ptr %121, align 8
  %122 = load ptr, ptr @CurrentMemoryContext, align 8
  %123 = getelementptr inbounds nuw %struct.FmgrInfo, ptr %7, i32 0, i32 7
  store ptr %122, ptr %123, align 8
  %124 = call ptr @CreateExecutorState()
  store ptr %124, ptr %8, align 8
  %125 = call ptr @ResourceOwnerCreate(ptr noundef null, ptr noundef @.str.17)
  store ptr %125, ptr %9, align 8
  br label %126

126:                                              ; preds = %118
  call void @llvm.lifetime.start.p0(i64 8, ptr %22) #9
  %127 = load ptr, ptr @PG_exception_stack, align 8
  store ptr %127, ptr %22, align 8
  call void @llvm.lifetime.start.p0(i64 8, ptr %23) #9
  %128 = load ptr, ptr @error_context_stack, align 8
  store ptr %128, ptr %23, align 8
  call void @llvm.lifetime.start.p0(i64 200, ptr %24) #9
  call void @llvm.lifetime.start.p0(i64 1, ptr %25) #9
  store i8 0, ptr %25, align 1
  %129 = getelementptr inbounds [1 x %struct.__jmp_buf_tag], ptr %24, i64 0, i64 0
  %130 = call i32 @__sigsetjmp(ptr noundef %129, i32 noundef 0) #11
  %131 = icmp eq i32 %130, 0
  br i1 %131, label %132, label %143

132:                                              ; preds = %126
  store ptr %24, ptr @PG_exception_stack, align 8
  %133 = load ptr, ptr %6, align 8
  %134 = load ptr, ptr %4, align 8
  %135 = load ptr, ptr %8, align 8
  %136 = load ptr, ptr %9, align 8
  %137 = load ptr, ptr %9, align 8
  %138 = load ptr, ptr %5, align 8
  %139 = getelementptr inbounds nuw %struct.InlineCodeBlock, ptr %138, i32 0, i32 4
  %140 = load i8, ptr %139, align 1, !range !3, !noundef !4
  %141 = trunc i8 %140 to i1
  %142 = call i64 @plpgsql_exec_function(ptr noundef %133, ptr noundef %134, ptr noundef %135, ptr noundef %136, ptr noundef %137, i1 noundef zeroext %141)
  store i64 %142, ptr %10, align 8
  br label %155

143:                                              ; preds = %126
  %144 = load ptr, ptr %22, align 8
  store ptr %144, ptr @PG_exception_stack, align 8
  %145 = load ptr, ptr %23, align 8
  store ptr %145, ptr @error_context_stack, align 8
  %146 = call i32 @GetCurrentSubTransactionId()
  call void @plpgsql_subxact_cb(i32 noundef 2, i32 noundef %146, i32 noundef 0, ptr noundef null)
  %147 = load ptr, ptr %8, align 8
  call void @FreeExecutorState(ptr noundef %147)
  %148 = load ptr, ptr %9, align 8
  call void @ReleaseAllPlanCacheRefsInOwner(ptr noundef %148)
  %149 = load ptr, ptr %9, align 8
  call void @ResourceOwnerDelete(ptr noundef %149)
  %150 = load ptr, ptr %6, align 8
  %151 = getelementptr inbounds nuw %struct.PLpgSQL_function, ptr %150, i32 0, i32 34
  %152 = load i64, ptr %151, align 8
  %153 = add i64 %152, -1
  store i64 %153, ptr %151, align 8
  %154 = load ptr, ptr %6, align 8
  call void @plpgsql_free_function_memory(ptr noundef %154)
  call void @pg_re_throw() #12
  unreachable

155:                                              ; preds = %132
  %156 = load i8, ptr %25, align 1, !range !3, !noundef !4
  %157 = trunc i8 %156 to i1
  br i1 %157, label %158, label %159

158:                                              ; preds = %155
  call void @pg_re_throw() #12
  unreachable

159:                                              ; preds = %155
  %160 = load ptr, ptr %22, align 8
  store ptr %160, ptr @PG_exception_stack, align 8
  %161 = load ptr, ptr %23, align 8
  store ptr %161, ptr @error_context_stack, align 8
  call void @llvm.lifetime.end.p0(i64 1, ptr %25) #9
  call void @llvm.lifetime.end.p0(i64 200, ptr %24) #9
  call void @llvm.lifetime.end.p0(i64 8, ptr %23) #9
  call void @llvm.lifetime.end.p0(i64 8, ptr %22) #9
  br label %162

162:                                              ; preds = %159
  br label %163

163:                                              ; preds = %162
  %164 = load ptr, ptr %8, align 8
  call void @FreeExecutorState(ptr noundef %164)
  %165 = load ptr, ptr %9, align 8
  call void @ReleaseAllPlanCacheRefsInOwner(ptr noundef %165)
  %166 = load ptr, ptr %9, align 8
  call void @ResourceOwnerDelete(ptr noundef %166)
  %167 = load ptr, ptr %6, align 8
  %168 = getelementptr inbounds nuw %struct.PLpgSQL_function, ptr %167, i32 0, i32 34
  %169 = load i64, ptr %168, align 8
  %170 = add i64 %169, -1
  store i64 %170, ptr %168, align 8
  %171 = load ptr, ptr %6, align 8
  call void @plpgsql_free_function_memory(ptr noundef %171)
  %172 = call i32 @SPI_finish()
  store i32 %172, ptr %11, align 4
  %173 = icmp ne i32 %172, 2
  br i1 %173, label %174, label %187

174:                                              ; preds = %163
  br label %175

175:                                              ; preds = %174
  br i1 true, label %176, label %178

176:                                              ; preds = %175
  %177 = call zeroext i1 @errstart_cold(i32 noundef 21, ptr noundef @.str) #13
  br i1 %177, label %180, label %184

178:                                              ; preds = %175
  %179 = call zeroext i1 @errstart(i32 noundef 21, ptr noundef @.str)
  br i1 %179, label %180, label %184

180:                                              ; preds = %178, %176
  %181 = load i32, ptr %11, align 4
  %182 = call ptr @SPI_result_code_string(i32 noundef %181)
  %183 = call i32 (ptr, ...) @errmsg_internal(ptr noundef @.str.15, ptr noundef %182)
  call void @errfinish(ptr noundef @.str.16, i32 noundef 425, ptr noundef @__func__.plpgsql_inline_handler)
  br label %184

184:                                              ; preds = %180, %178, %176
  unreachable

185:                                              ; No predecessors!
  br label %186

186:                                              ; preds = %185
  br label %187

187:                                              ; preds = %186, %163
  %188 = load i64, ptr %10, align 8
  call void @llvm.lifetime.end.p0(i64 4, ptr %11) #9
  call void @llvm.lifetime.end.p0(i64 8, ptr %10) #9
  call void @llvm.lifetime.end.p0(i64 8, ptr %9) #9
  call void @llvm.lifetime.end.p0(i64 8, ptr %8) #9
  call void @llvm.lifetime.end.p0(i64 48, ptr %7) #9
  call void @llvm.lifetime.end.p0(i64 8, ptr %6) #9
  call void @llvm.lifetime.end.p0(i64 8, ptr %5) #9
  call void @llvm.lifetime.end.p0(i64 8, ptr %4) #9
  call void @llvm.lifetime.end.p0(i64 32, ptr %3) #9
  ret i64 %188
}