; Function Attrs: nounwind uwtable
define i64 @plpgsql_inline_handler(ptr noundef readonly captures(none) %0) local_unnamed_addr #1 {
.preheader.preheader:
  %1 = alloca %union.anon, align 8
  %2 = alloca %struct.FmgrInfo, align 8
  %3 = alloca [1 x %struct.__jmp_buf_tag], align 16
  call void @llvm.lifetime.start.p0(i64 32, ptr nonnull %1) #11
  %4 = getelementptr inbounds nuw i8, ptr %0, i64 32
  %5 = load i64, ptr %4, align 8
  %6 = inttoptr i64 %5 to ptr
  call void @llvm.lifetime.start.p0(i64 48, ptr nonnull %2) #11
  %7 = getelementptr inbounds nuw i8, ptr %6, i64 21
  %8 = load i8, ptr %7, align 1, !range !3, !noundef !4
  %9 = xor i8 %8, 1
  %not. = zext nneg i8 %9 to i32
  %10 = call i32 @SPI_connect_ext(i32 noundef %not.) #11
  %11 = getelementptr inbounds nuw i8, ptr %6, i64 8
  %12 = load ptr, ptr %11, align 8
  %13 = call ptr @plpgsql_compile_inline(ptr noundef %12) #11
  %14 = getelementptr inbounds nuw i8, ptr %13, i64 544
  %15 = load i64, ptr %14, align 8
  %16 = add i64 %15, 1
  store i64 %16, ptr %14, align 8
  %17 = getelementptr inbounds nuw i8, ptr %1, i64 8
  call void @llvm.memset.p0.i64(ptr noundef nonnull align 8 dereferenceable(32) %17, i8 0, i64 24, i1 false)
  call void @llvm.memset.p0.i64(ptr noundef nonnull align 8 dereferenceable(48) %2, i8 0, i64 48, i1 false)
  store ptr %2, ptr %1, align 8
  %18 = load ptr, ptr @CurrentMemoryContext, align 8
  %19 = getelementptr inbounds nuw i8, ptr %2, i64 32
  store ptr %18, ptr %19, align 8
  %20 = call ptr @CreateExecutorState() #11
  %21 = call ptr @ResourceOwnerCreate(ptr noundef null, ptr noundef nonnull @.str.17) #11
  %22 = load ptr, ptr @PG_exception_stack, align 8
  %23 = load ptr, ptr @error_context_stack, align 8
  call void @llvm.lifetime.start.p0(i64 200, ptr nonnull %3) #11
  %24 = call i32 @__sigsetjmp(ptr noundef nonnull %3, i32 noundef 0) #13
  %25 = icmp eq i32 %24, 0
  br i1 %25, label %26, label %33

26:                                               ; preds = %.preheader.preheader
  store ptr %3, ptr @PG_exception_stack, align 8
  %27 = load i8, ptr %7, align 1, !range !3, !noundef !4
  %28 = trunc nuw i8 %27 to i1
  %29 = call i64 @plpgsql_exec_function(ptr noundef nonnull %13, ptr noundef nonnull %1, ptr noundef %20, ptr noundef %21, ptr noundef %21, i1 noundef zeroext %28) #11
  store ptr %22, ptr @PG_exception_stack, align 8
  store ptr %23, ptr @error_context_stack, align 8
  call void @llvm.lifetime.end.p0(i64 200, ptr nonnull %3) #11
  call void @FreeExecutorState(ptr noundef %20) #11
  call void @ReleaseAllPlanCacheRefsInOwner(ptr noundef %21) #11
  call void @ResourceOwnerDelete(ptr noundef %21) #11
  %30 = load i64, ptr %14, align 8
  %31 = add i64 %30, -1
  store i64 %31, ptr %14, align 8
  call void @plpgsql_free_function_memory(ptr noundef nonnull %13) #11
  %32 = call i32 @SPI_finish() #11
  %.not = icmp eq i32 %32, 2
  br i1 %.not, label %41, label %37

33:                                               ; preds = %.preheader.preheader
  store ptr %22, ptr @PG_exception_stack, align 8
  store ptr %23, ptr @error_context_stack, align 8
  %34 = call i32 @GetCurrentSubTransactionId() #11
  call void @plpgsql_subxact_cb(i32 noundef 2, i32 noundef %34, i32 noundef 0, ptr noundef null) #11
  call void @FreeExecutorState(ptr noundef %20) #11
  call void @ReleaseAllPlanCacheRefsInOwner(ptr noundef %21) #11
  call void @ResourceOwnerDelete(ptr noundef %21) #11
  %35 = load i64, ptr %14, align 8
  %36 = add i64 %35, -1
  store i64 %36, ptr %14, align 8
  call void @plpgsql_free_function_memory(ptr noundef nonnull %13) #11
  call void @pg_re_throw() #14
  unreachable

37:                                               ; preds = %26
  %38 = call zeroext i1 @errstart_cold(i32 noundef 21, ptr noundef nonnull @.str) #15
  call void @llvm.assume(i1 %38)
  %39 = call ptr @SPI_result_code_string(i32 noundef %32) #11
  %40 = call i32 (ptr, ...) @errmsg_internal(ptr noundef nonnull @.str.15, ptr noundef %39) #11
  call void @errfinish(ptr noundef nonnull @.str.16, i32 noundef 425, ptr noundef nonnull @__func__.plpgsql_inline_handler) #11
  unreachable

41:                                               ; preds = %26
  call void @llvm.lifetime.end.p0(i64 48, ptr nonnull %2) #11
  call void @llvm.lifetime.end.p0(i64 32, ptr nonnull %1) #11
  ret i64 %29
}